; Function Attrs: mustprogress uwtable
define void @_ZN26MainWindowPreferencesFrame39on_languageComboBox_currentIndexChangedEi(ptr nocapture noundef nonnull readonly align 8 dereferenceable(144) %0, i32 noundef %1) local_unnamed_addr #0 align 2 personality ptr @__gxx_personality_v0 {
  %3 = alloca %class.QString, align 8
  %4 = alloca %class.QVariant, align 8
  %5 = load ptr, ptr @language, align 8
  tail call void @g_free(ptr noundef %5)
  %6 = getelementptr inbounds i8, ptr %0, i64 40
  %7 = load ptr, ptr %6, align 8
  %8 = getelementptr inbounds i8, ptr %7, i64 248
  %9 = load ptr, ptr %8, align 8
  call void @_ZNK9QComboBox8itemDataEii(ptr dead_on_unwind nonnull writable sret(%class.QVariant) align 8 %4, ptr noundef nonnull align 8 dereferenceable(40) %9, i32 noundef %1, i32 noundef 256)
  invoke void @_ZNK8QVariant8toStringEv(ptr dead_on_unwind nonnull writable sret(%class.QString) align 8 %3, ptr noundef nonnull align 8 dereferenceable(32) %4)
          to label %10 unwind label %17

10:                                               ; preds = %2
  %11 = invoke noundef ptr @_Z14qstring_strdup7QString(ptr noundef nonnull %3)
          to label %12 unwind label %19

12:                                               ; preds = %10
  store ptr %11, ptr @language, align 8
  %13 = load ptr, ptr %3, align 8
  %.not.i.i.i = icmp eq ptr %13, null
  br i1 %.not.i.i.i, label %_ZN7QStringD2Ev.exit, label %_ZN17QArrayDataPointerIDsE5derefEv.exit.i.i

_ZN17QArrayDataPointerIDsE5derefEv.exit.i.i:      ; preds = %12
  %14 = atomicrmw sub ptr %13, i32 1 seq_cst, align 4
  %.not.i.i = icmp eq i32 %14, 1
  br i1 %.not.i.i, label %15, label %_ZN7QStringD2Ev.exit

15:                                               ; preds = %_ZN17QArrayDataPointerIDsE5derefEv.exit.i.i
  %16 = load ptr, ptr %3, align 8
  call void @_ZN10QArrayData10deallocateEPS_xx(ptr noundef %16, i64 noundef 2, i64 noundef 8) #16
  br label %_ZN7QStringD2Ev.exit

_ZN7QStringD2Ev.exit:                             ; preds = %12, %_ZN17QArrayDataPointerIDsE5derefEv.exit.i.i, %15
  call void @_ZN8QVariantD1Ev(ptr noundef nonnull align 8 dereferenceable(32) %4) #16
  ret void

17:                                               ; preds = %2
  %18 = landingpad { ptr, i32 }
          cleanup
  br label %_ZN7QStringD2Ev.exit8

19:                                               ; preds = %10
  %20 = landingpad { ptr, i32 }
          cleanup
  %21 = load ptr, ptr %3, align 8
  %.not.i.i.i5 = icmp eq ptr %21, null
  br i1 %.not.i.i.i5, label %_ZN7QStringD2Ev.exit8, label %_ZN17QArrayDataPointerIDsE5derefEv.exit.i.i6

_ZN17QArrayDataPointerIDsE5derefEv.exit.i.i6:     ; preds = %19
  %22 = atomicrmw sub ptr %21, i32 1 seq_cst, align 4
  %.not.i.i7 = icmp eq i32 %22, 1
  br i1 %.not.i.i7, label %23, label %_ZN7QStringD2Ev.exit8

23:                                               ; preds = %_ZN17QArrayDataPointerIDsE5derefEv.exit.i.i6
  %24 = load ptr, ptr %3, align 8
  call void @_ZN10QArrayData10deallocateEPS_xx(ptr noundef %24, i64 noundef 2, i64 noundef 8) #16
  br label %_ZN7QStringD2Ev.exit8

_ZN7QStringD2Ev.exit8:                            ; preds = %23, %_ZN17QArrayDataPointerIDsE5derefEv.exit.i.i6, %19, %17
  %.pn = phi { ptr, i32 } [ %18, %17 ], [ %20, %19 ], [ %20, %_ZN17QArrayDataPointerIDsE5derefEv.exit.i.i6 ], [ %20, %23 ]
  call void @_ZN8QVariantD1Ev(ptr noundef nonnull align 8 dereferenceable(32) %4) #16
  resume { ptr, i32 } %.pn
}